; Function Attrs: nounwind uwtable
define noalias nonnull ptr @l_Lean_RBNode_foldM___at_Lean_Server_FileWorker_mainLoop___spec__1___lambda__1(ptr noundef %0, ptr noundef %1, ptr noundef readnone captures(none) %2, ptr noundef %3) local_unnamed_addr #0 {
  %5 = tail call ptr @l_Lean_RBNode_del___at_Lean_Server_FileWorker_handleCancelRequest___spec__3(ptr noundef %0, ptr noundef %1)
  %6 = tail call ptr @l_Lean_RBNode_setBlack___rarg(ptr noundef %5) #7
  tail call void @lean_inc_heartbeat() #7
  %7 = tail call noalias ptr @mi_malloc_small(i64 noundef 24) #7
  %8 = icmp eq ptr %7, null
  br i1 %8, label %9, label %lean_alloc_ctor.exit

9:                                                ; preds = %4
  tail call void @lean_internal_panic_out_of_memory() #8
  unreachable

lean_alloc_ctor.exit:                             ; preds = %4
  %10 = getelementptr inbounds nuw i8, ptr %7, i64 4
  store i32 1, ptr %7, align 4, !tbaa !10
  store i32 131096, ptr %10, align 4
  %11 = getelementptr inbounds nuw i8, ptr %7, i64 8
  store ptr %6, ptr %11, align 8, !tbaa !4
  %12 = getelementptr inbounds nuw i8, ptr %7, i64 16
  store ptr %3, ptr %12, align 8, !tbaa !4
  ret ptr %7
}